; Function Attrs: mustprogress nounwind uwtable
define dso_local void @_ZN15btCompoundShapeD0Ev(ptr noundef nonnull align 8 dereferenceable(128) %this) unnamed_addr #2 align 2 personality ptr @__gxx_personality_v0 {
entry:
  store ptr getelementptr inbounds ({ [20 x ptr] }, ptr @_ZTV15btCompoundShape, i64 0, i32 0, i64 2), ptr %this, align 8
  %m_dynamicAabbTree.i = getelementptr inbounds i8, ptr %this, i64 96
  %0 = load ptr, ptr %m_dynamicAabbTree.i, align 8
  %tobool.not.i = icmp eq ptr %0, null
  br i1 %tobool.not.i, label %if.end.i, label %if.then.i

if.then.i:                                        ; preds = %entry
  tail call void @_ZN6btDbvtD1Ev(ptr noundef nonnull align 8 dereferenceable(64) %0) #11
  %1 = load ptr, ptr %m_dynamicAabbTree.i, align 8
  invoke void @_Z21btAlignedFreeInternalPv(ptr noundef %1)
          to label %if.end.i unwind label %terminate.lpad.i

if.end.i:                                         ; preds = %if.then.i, %entry
  %m_data.i.i.i.i = getelementptr inbounds i8, ptr %this, i64 48
  %2 = load ptr, ptr %m_data.i.i.i.i, align 8
  %tobool.not.i.i.i.i = icmp eq ptr %2, null
  br i1 %tobool.not.i.i.i.i, label %_ZN15btCompoundShapeD2Ev.exit, label %if.then.i.i.i.i

if.then.i.i.i.i:                                  ; preds = %if.end.i
  %m_ownsMemory.i.i.i.i = getelementptr inbounds i8, ptr %this, i64 56
  %3 = load i8, ptr %m_ownsMemory.i.i.i.i, align 8
  %4 = and i8 %3, 1
  %tobool2.not.i.i.i.i = icmp eq i8 %4, 0
  br i1 %tobool2.not.i.i.i.i, label %_ZN15btCompoundShapeD2Ev.exit, label %if.then3.i.i.i.i

if.then3.i.i.i.i:                                 ; preds = %if.then.i.i.i.i
  invoke void @_Z21btAlignedFreeInternalPv(ptr noundef nonnull %2)
          to label %_ZN15btCompoundShapeD2Ev.exit unwind label %terminate.lpad.i.i

terminate.lpad.i.i:                               ; preds = %if.then3.i.i.i.i
  %5 = landingpad { ptr, i32 }
          catch ptr null
  %6 = extractvalue { ptr, i32 } %5, 0
  tail call void @__clang_call_terminate(ptr %6) #12
  unreachable

terminate.lpad.i:                                 ; preds = %if.then.i
  %7 = landingpad { ptr, i32 }
          catch ptr null
  %8 = extractvalue { ptr, i32 } %7, 0
  tail call void @__clang_call_terminate(ptr %8) #12
  unreachable

_ZN15btCompoundShapeD2Ev.exit:                    ; preds = %if.end.i, %if.then.i.i.i.i, %if.then3.i.i.i.i
  %m_size.i.i.i.i = getelementptr inbounds i8, ptr %this, i64 36
  %m_ownsMemory.i1.i.i.i = getelementptr inbounds i8, ptr %this, i64 56
  store i8 1, ptr %m_ownsMemory.i1.i.i.i, align 8
  store ptr null, ptr %m_data.i.i.i.i, align 8
  store i32 0, ptr %m_size.i.i.i.i, align 4
  %m_capacity.i.i.i.i = getelementptr inbounds i8, ptr %this, i64 40
  store i32 0, ptr %m_capacity.i.i.i.i, align 8
  invoke void @_Z21btAlignedFreeInternalPv(ptr noundef nonnull %this)
          to label %_ZN15btCompoundShapedlEPv.exit unwind label %terminate.lpad.i1

terminate.lpad.i1:                                ; preds = %_ZN15btCompoundShapeD2Ev.exit
  %9 = landingpad { ptr, i32 }
          catch ptr null
  %10 = extractvalue { ptr, i32 } %9, 0
  tail call void @__clang_call_terminate(ptr %10) #12
  unreachable

_ZN15btCompoundShapedlEPv.exit:                   ; preds = %_ZN15btCompoundShapeD2Ev.exit
  ret void
}